target datalayout = "e-m:e-p270:32:32-p271:32:32-p272:64:64-i64:64-i128:128-f80:128-n8:16:32:64-S128"
target triple = "x86_64-pc-linux-gnu"

%struct.UNewTrie = type { [34848 x i32], ptr, i32, i32, i32, i32, i8, i8, i8, i8, [34849 x i32] }

; Function Attrs: mustprogress nounwind uwtable
define ptr @utrie_getData_77(ptr noundef %0, ptr noundef %1) #6 {
  %3 = alloca ptr, align 8
  %4 = alloca ptr, align 8
  %5 = alloca ptr, align 8
  store ptr %0, ptr %4, align 8, !tbaa !3
  store ptr %1, ptr %5, align 8, !tbaa !8
  %6 = load ptr, ptr %4, align 8, !tbaa !3
  %7 = icmp eq ptr %6, null
  br i1 %7, label %11, label %8

8:                                                ; preds = %2
  %9 = load ptr, ptr %5, align 8, !tbaa !8
  %10 = icmp eq ptr %9, null
  br i1 %10, label %11, label %12

11:                                               ; preds = %8, %2
  store ptr null, ptr %3, align 8
  br label %20

12:                                               ; preds = %8
  %13 = load ptr, ptr %4, align 8, !tbaa !3
  %14 = getelementptr inbounds nuw %struct.UNewTrie, ptr %13, i32 0, i32 5
  %15 = load i32, ptr %14, align 4, !tbaa !19
  %16 = load ptr, ptr %5, align 8, !tbaa !8
  store i32 %15, ptr %16, align 4, !tbaa !10
  %17 = load ptr, ptr %4, align 8, !tbaa !3
  %18 = getelementptr inbounds nuw %struct.UNewTrie, ptr %17, i32 0, i32 1
  %19 = load ptr, ptr %18, align 8, !tbaa !15
  store ptr %19, ptr %3, align 8
  br label %20

20:                                               ; preds = %12, %11
  %21 = load ptr, ptr %3, align 8
  ret ptr %21
}