; Function Attrs: mustprogress nofree norecurse nosync nounwind willreturn memory(argmem: readwrite) uwtable
define ptr @utrie_getData_77(ptr noundef readonly %0, ptr noundef writeonly %1) local_unnamed_addr #6 {
  %3 = icmp eq ptr %0, null
  %4 = icmp eq ptr %1, null
  %or.cond = or i1 %3, %4
  br i1 %or.cond, label %10, label %5

5:                                                ; preds = %2
  %6 = getelementptr inbounds nuw i8, ptr %0, i64 139412
  %7 = load i32, ptr %6, align 4, !tbaa !15
  store i32 %7, ptr %1, align 4, !tbaa !12
  %8 = getelementptr inbounds nuw i8, ptr %0, i64 139392
  %9 = load ptr, ptr %8, align 8, !tbaa !10
  br label %10

10:                                               ; preds = %2, %5
  %.0 = phi ptr [ %9, %5 ], [ null, %2 ]
  ret ptr %.0
}